target datalayout = "e-m:e-p270:32:32-p271:32:32-p272:64:64-i64:64-i128:128-f80:128-n8:16:32:64-S128"
target triple = "x86_64-pc-linux-gnu"

%struct.mbedtls_error_pair_t = type { i16, i16 }
%struct.psa_key_attributes_s = type { i16, i16, i32, %struct.psa_key_policy_s, i32 }
%struct.psa_key_policy_s = type { i32, i32, i32 }

@psa_to_ssl_errors = external constant [7 x %struct.mbedtls_error_pair_t], align 16

; Function Attrs: inlinehint nounwind uwtable
define internal void @psa_extend_key_usage_flags(ptr noundef %0) #5 {
  %2 = alloca ptr, align 8
  store ptr %0, ptr %2, align 8, !tbaa !91
  %3 = load ptr, ptr %2, align 8, !tbaa !91
  %4 = load i32, ptr %3, align 4, !tbaa !3
  %5 = and i32 %4, 4096
  %6 = icmp ne i32 %5, 0
  br i1 %6, label %7, label %11

7:                                                ; preds = %1
  %8 = load ptr, ptr %2, align 8, !tbaa !91
  %9 = load i32, ptr %8, align 4, !tbaa !3
  %10 = or i32 %9, 1024
  store i32 %10, ptr %8, align 4, !tbaa !3
  br label %11

11:                                               ; preds = %7, %1
  %12 = load ptr, ptr %2, align 8, !tbaa !91
  %13 = load i32, ptr %12, align 4, !tbaa !3
  %14 = and i32 %13, 8192
  %15 = icmp ne i32 %14, 0
  br i1 %15, label %16, label %20

16:                                               ; preds = %11
  %17 = load ptr, ptr %2, align 8, !tbaa !91
  %18 = load i32, ptr %17, align 4, !tbaa !3
  %19 = or i32 %18, 2048
  store i32 %19, ptr %17, align 4, !tbaa !3
  br label %20

20:                                               ; preds = %16, %11
  ret void
}

; Function Attrs: nounwind uwtable
define internal i32 @local_err_translation(i32 noundef %0) #0 {
  %2 = alloca i32, align 4
  store i32 %0, ptr %2, align 4, !tbaa !3
  %3 = load i32, ptr %2, align 4, !tbaa !3
  %4 = call i32 @psa_status_to_mbedtls(i32 noundef %3, ptr noundef @psa_to_ssl_errors, i64 noundef 7, ptr noundef @psa_generic_status_to_mbedtls)
  ret i32 %4
}

; Function Attrs: inlinehint nounwind uwtable
define internal void @psa_set_key_type(ptr noundef %0, i16 noundef zeroext %1) #5 {
  %3 = alloca ptr, align 8
  %4 = alloca i16, align 2
  store ptr %0, ptr %3, align 8, !tbaa !83
  store i16 %1, ptr %4, align 2, !tbaa !89
  %5 = load i16, ptr %4, align 2, !tbaa !89
  %6 = load ptr, ptr %3, align 8, !tbaa !83
  %7 = getelementptr inbounds nuw %struct.psa_key_attributes_s, ptr %6, i32 0, i32 0
  store i16 %5, ptr %7, align 4, !tbaa !90
  ret void
}

; Function Attrs: inlinehint nounwind uwtable
define internal void @psa_set_key_algorithm(ptr noundef %0, i32 noundef %1) #5 {
  %3 = alloca ptr, align 8
  %4 = alloca i32, align 4
  store ptr %0, ptr %3, align 8, !tbaa !83
  store i32 %1, ptr %4, align 4, !tbaa !3
  %5 = load i32, ptr %4, align 4, !tbaa !3
  %6 = load ptr, ptr %3, align 8, !tbaa !83
  %7 = getelementptr inbounds nuw %struct.psa_key_attributes_s, ptr %6, i32 0, i32 3
  %8 = getelementptr inbounds nuw %struct.psa_key_policy_s, ptr %7, i32 0, i32 1
  store i32 %5, ptr %8, align 4, !tbaa !88
  ret void
}

; Function Attrs: inlinehint nounwind uwtable
define internal void @psa_set_key_usage_flags(ptr noundef %0, i32 noundef %1) #5 {
  %3 = alloca ptr, align 8
  %4 = alloca i32, align 4
  store ptr %0, ptr %3, align 8, !tbaa !83
  store i32 %1, ptr %4, align 4, !tbaa !3
  call void @psa_extend_key_usage_flags(ptr noundef %4)
  %5 = load i32, ptr %4, align 4, !tbaa !3
  %6 = load ptr, ptr %3, align 8, !tbaa !83
  %7 = getelementptr inbounds nuw %struct.psa_key_attributes_s, ptr %6, i32 0, i32 3
  %8 = getelementptr inbounds nuw %struct.psa_key_policy_s, ptr %7, i32 0, i32 0
  store i32 %5, ptr %8, align 4, !tbaa !85
  ret void
}

; Function Attrs: nounwind uwtable
define internal i32 @ssl_tls13_calc_finished_core(i32 noundef %0, ptr noundef %1, ptr noundef %2, ptr noundef %3, ptr noundef %4) #0 {
  %6 = alloca i32, align 4
  %7 = alloca i32, align 4
  %8 = alloca ptr, align 8
  %9 = alloca ptr, align 8
  %10 = alloca ptr, align 8
  %11 = alloca ptr, align 8
  %12 = alloca i32, align 4
  %13 = alloca %struct.psa_key_attributes_s, align 4
  %14 = alloca i32, align 4
  %15 = alloca i64, align 8
  %16 = alloca [64 x i8], align 16
  %17 = alloca i32, align 4
  %18 = alloca i32, align 4
  %19 = alloca i32, align 4
  store i32 %0, ptr %7, align 4, !tbaa !3
  store ptr %1, ptr %8, align 8, !tbaa !7
  store ptr %2, ptr %9, align 8, !tbaa !7
  store ptr %3, ptr %10, align 8, !tbaa !7
  store ptr %4, ptr %11, align 8, !tbaa !12
  call void @llvm.lifetime.start.p0(i64 4, ptr %12) #8
  store i32 0, ptr %12, align 4, !tbaa !3
  call void @llvm.lifetime.start.p0(i64 24, ptr %13) #8
  call void @llvm.memset.p0.i64(ptr align 4 %13, i8 0, i64 24, i1 false)
  call void @llvm.lifetime.start.p0(i64 4, ptr %14) #8
  store i32 -151, ptr %14, align 4, !tbaa !3
  call void @llvm.lifetime.start.p0(i64 8, ptr %15) #8
  %20 = load i32, ptr %7, align 4, !tbaa !3
  %21 = and i32 %20, 255
  %22 = or i32 33554432, %21
  %23 = icmp eq i32 %22, 33554435
  br i1 %23, label %24, label %25

24:                                               ; preds = %5
  br label %119

25:                                               ; preds = %5
  %26 = load i32, ptr %7, align 4, !tbaa !3
  %27 = and i32 %26, 255
  %28 = or i32 33554432, %27
  %29 = icmp eq i32 %28, 33554436
  br i1 %29, label %30, label %31

30:                                               ; preds = %25
  br label %117

31:                                               ; preds = %25
  %32 = load i32, ptr %7, align 4, !tbaa !3
  %33 = and i32 %32, 255
  %34 = or i32 33554432, %33
  %35 = icmp eq i32 %34, 33554437
  br i1 %35, label %36, label %37

36:                                               ; preds = %31
  br label %115

37:                                               ; preds = %31
  %38 = load i32, ptr %7, align 4, !tbaa !3
  %39 = and i32 %38, 255
  %40 = or i32 33554432, %39
  %41 = icmp eq i32 %40, 33554440
  br i1 %41, label %42, label %43

42:                                               ; preds = %37
  br label %113

43:                                               ; preds = %37
  %44 = load i32, ptr %7, align 4, !tbaa !3
  %45 = and i32 %44, 255
  %46 = or i32 33554432, %45
  %47 = icmp eq i32 %46, 33554441
  br i1 %47, label %48, label %49

48:                                               ; preds = %43
  br label %111

49:                                               ; preds = %43
  %50 = load i32, ptr %7, align 4, !tbaa !3
  %51 = and i32 %50, 255
  %52 = or i32 33554432, %51
  %53 = icmp eq i32 %52, 33554442
  br i1 %53, label %54, label %55

54:                                               ; preds = %49
  br label %109

55:                                               ; preds = %49
  %56 = load i32, ptr %7, align 4, !tbaa !3
  %57 = and i32 %56, 255
  %58 = or i32 33554432, %57
  %59 = icmp eq i32 %58, 33554443
  br i1 %59, label %60, label %61

60:                                               ; preds = %55
  br label %107

61:                                               ; preds = %55
  %62 = load i32, ptr %7, align 4, !tbaa !3
  %63 = and i32 %62, 255
  %64 = or i32 33554432, %63
  %65 = icmp eq i32 %64, 33554444
  br i1 %65, label %66, label %67

66:                                               ; preds = %61
  br label %105

67:                                               ; preds = %61
  %68 = load i32, ptr %7, align 4, !tbaa !3
  %69 = and i32 %68, 255
  %70 = or i32 33554432, %69
  %71 = icmp eq i32 %70, 33554445
  br i1 %71, label %72, label %73

72:                                               ; preds = %67
  br label %103

73:                                               ; preds = %67
  %74 = load i32, ptr %7, align 4, !tbaa !3
  %75 = and i32 %74, 255
  %76 = or i32 33554432, %75
  %77 = icmp eq i32 %76, 33554448
  br i1 %77, label %78, label %79

78:                                               ; preds = %73
  br label %101

79:                                               ; preds = %73
  %80 = load i32, ptr %7, align 4, !tbaa !3
  %81 = and i32 %80, 255
  %82 = or i32 33554432, %81
  %83 = icmp eq i32 %82, 33554449
  br i1 %83, label %84, label %85

84:                                               ; preds = %79
  br label %99

85:                                               ; preds = %79
  %86 = load i32, ptr %7, align 4, !tbaa !3
  %87 = and i32 %86, 255
  %88 = or i32 33554432, %87
  %89 = icmp eq i32 %88, 33554450
  br i1 %89, label %90, label %91

90:                                               ; preds = %85
  br label %97

91:                                               ; preds = %85
  %92 = load i32, ptr %7, align 4, !tbaa !3
  %93 = and i32 %92, 255
  %94 = or i32 33554432, %93
  %95 = icmp eq i32 %94, 33554451
  %96 = select i1 %95, i32 64, i32 0
  br label %97

97:                                               ; preds = %91, %90
  %98 = phi i32 [ 48, %90 ], [ %96, %91 ]
  br label %99

99:                                               ; preds = %97, %84
  %100 = phi i32 [ 32, %84 ], [ %98, %97 ]
  br label %101

101:                                              ; preds = %99, %78
  %102 = phi i32 [ 28, %78 ], [ %100, %99 ]
  br label %103

103:                                              ; preds = %101, %72
  %104 = phi i32 [ 32, %72 ], [ %102, %101 ]
  br label %105

105:                                              ; preds = %103, %66
  %106 = phi i32 [ 28, %66 ], [ %104, %103 ]
  br label %107

107:                                              ; preds = %105, %60
  %108 = phi i32 [ 64, %60 ], [ %106, %105 ]
  br label %109

109:                                              ; preds = %107, %54
  %110 = phi i32 [ 48, %54 ], [ %108, %107 ]
  br label %111

111:                                              ; preds = %109, %48
  %112 = phi i32 [ 32, %48 ], [ %110, %109 ]
  br label %113

113:                                              ; preds = %111, %42
  %114 = phi i32 [ 28, %42 ], [ %112, %111 ]
  br label %115

115:                                              ; preds = %113, %36
  %116 = phi i32 [ 20, %36 ], [ %114, %113 ]
  br label %117

117:                                              ; preds = %115, %30
  %118 = phi i32 [ 20, %30 ], [ %116, %115 ]
  br label %119

119:                                              ; preds = %117, %24
  %120 = phi i32 [ 16, %24 ], [ %118, %117 ]
  %121 = zext i32 %120 to i64
  store i64 %121, ptr %15, align 8, !tbaa !10
  call void @llvm.lifetime.start.p0(i64 64, ptr %16) #8
  call void @llvm.lifetime.start.p0(i64 4, ptr %17) #8
  call void @llvm.lifetime.start.p0(i64 4, ptr %18) #8
  %122 = load i32, ptr %7, align 4, !tbaa !3
  %123 = and i32 %122, 2130706432
  %124 = icmp eq i32 %123, 33554432
  br i1 %124, label %126, label %125

125:                                              ; preds = %119
  store i32 -27648, ptr %6, align 4
  store i32 1, ptr %19, align 4
  br label %171

126:                                              ; preds = %119
  %127 = load i32, ptr %7, align 4, !tbaa !3
  %128 = load ptr, ptr %8, align 8, !tbaa !7
  %129 = load i64, ptr %15, align 8, !tbaa !10
  %130 = getelementptr inbounds [64 x i8], ptr %16, i64 0, i64 0
  %131 = load i64, ptr %15, align 8, !tbaa !10
  %132 = call i32 @mbedtls_ssl_tls13_hkdf_expand_label(i32 noundef %127, ptr noundef %128, i64 noundef %129, ptr noundef @mbedtls_ssl_tls13_labels, i64 noundef 8, ptr noundef null, i64 noundef 0, ptr noundef %130, i64 noundef %131)
  store i32 %132, ptr %17, align 4, !tbaa !3
  %133 = load i32, ptr %17, align 4, !tbaa !3
  %134 = icmp ne i32 %133, 0
  br i1 %134, label %135, label %136

135:                                              ; preds = %126
  br label %160

136:                                              ; preds = %126
  %137 = load i32, ptr %7, align 4, !tbaa !3
  %138 = and i32 %137, 255
  %139 = or i32 58720256, %138
  store i32 %139, ptr %18, align 4, !tbaa !3
  call void @psa_set_key_usage_flags(ptr noundef %13, i32 noundef 1024)
  %140 = load i32, ptr %18, align 4, !tbaa !3
  call void @psa_set_key_algorithm(ptr noundef %13, i32 noundef %140)
  call void @psa_set_key_type(ptr noundef %13, i16 noundef zeroext 4352)
  %141 = getelementptr inbounds [64 x i8], ptr %16, i64 0, i64 0
  %142 = load i64, ptr %15, align 8, !tbaa !10
  %143 = call i32 @psa_import_key(ptr noundef %13, ptr noundef %141, i64 noundef %142, ptr noundef %12)
  store i32 %143, ptr %14, align 4, !tbaa !3
  %144 = load i32, ptr %14, align 4, !tbaa !3
  %145 = icmp ne i32 %144, 0
  br i1 %145, label %146, label %149

146:                                              ; preds = %136
  %147 = load i32, ptr %14, align 4, !tbaa !3
  %148 = call i32 @local_err_translation(i32 noundef %147)
  store i32 %148, ptr %17, align 4, !tbaa !3
  br label %160

149:                                              ; preds = %136
  %150 = load i32, ptr %12, align 4, !tbaa !3
  %151 = load i32, ptr %18, align 4, !tbaa !3
  %152 = load ptr, ptr %9, align 8, !tbaa !7
  %153 = load i64, ptr %15, align 8, !tbaa !10
  %154 = load ptr, ptr %10, align 8, !tbaa !7
  %155 = load i64, ptr %15, align 8, !tbaa !10
  %156 = load ptr, ptr %11, align 8, !tbaa !12
  %157 = call i32 @psa_mac_compute(i32 noundef %150, i32 noundef %151, ptr noundef %152, i64 noundef %153, ptr noundef %154, i64 noundef %155, ptr noundef %156)
  store i32 %157, ptr %14, align 4, !tbaa !3
  %158 = load i32, ptr %14, align 4, !tbaa !3
  %159 = call i32 @local_err_translation(i32 noundef %158)
  store i32 %159, ptr %17, align 4, !tbaa !3
  br label %160

160:                                              ; preds = %149, %146, %135
  %161 = load i32, ptr %12, align 4, !tbaa !3
  %162 = call i32 @psa_destroy_key(i32 noundef %161)
  store i32 %162, ptr %14, align 4, !tbaa !3
  %163 = load i32, ptr %17, align 4, !tbaa !3
  %164 = icmp eq i32 %163, 0
  br i1 %164, label %165, label %168

165:                                              ; preds = %160
  %166 = load i32, ptr %14, align 4, !tbaa !3
  %167 = call i32 @local_err_translation(i32 noundef %166)
  store i32 %167, ptr %17, align 4, !tbaa !3
  br label %168

168:                                              ; preds = %165, %160
  %169 = getelementptr inbounds [64 x i8], ptr %16, i64 0, i64 0
  call void @mbedtls_platform_zeroize(ptr noundef %169, i64 noundef 64)
  %170 = load i32, ptr %17, align 4, !tbaa !3
  store i32 %170, ptr %6, align 4
  store i32 1, ptr %19, align 4
  br label %171

171:                                              ; preds = %168, %125
  call void @llvm.lifetime.end.p0(i64 4, ptr %18) #8
  call void @llvm.lifetime.end.p0(i64 4, ptr %17) #8
  call void @llvm.lifetime.end.p0(i64 64, ptr %16) #8
  call void @llvm.lifetime.end.p0(i64 8, ptr %15) #8
  call void @llvm.lifetime.end.p0(i64 4, ptr %14) #8
  call void @llvm.lifetime.end.p0(i64 24, ptr %13) #8
  call void @llvm.lifetime.end.p0(i64 4, ptr %12) #8
  %172 = load i32, ptr %6, align 4
  ret i32 %172
}