; Function Attrs: nounwind uwtable
define internal fastcc i32 @ssl_tls13_calc_finished_core(i32 noundef %0, ptr noundef %1, ptr noundef %2, ptr noundef %3, ptr noundef %4) unnamed_addr #0 {
  %6 = alloca i32, align 4
  %7 = alloca %struct.psa_key_attributes_s, align 4
  %8 = alloca [64 x i8], align 16
  call void @llvm.lifetime.start.p0(i64 4, ptr nonnull %6) #8
  store i32 0, ptr %6, align 4, !tbaa !40
  call void @llvm.lifetime.start.p0(i64 24, ptr nonnull %7) #8
  call void @llvm.memset.p0.i64(ptr noundef nonnull align 4 dereferenceable(24) %7, i8 0, i64 24, i1 false)
  %9 = and i32 %0, 255
  %trunc = trunc i32 %0 to i8
  %switch.tableidx = add i8 %trunc, -3
  %10 = icmp ult i8 %switch.tableidx, 16
  br i1 %10, label %switch.hole_check, label %11

11:                                               ; preds = %switch.hole_check, %5
  %12 = icmp eq i32 %9, 19
  %13 = select i1 %12, i64 64, i64 0
  br label %15

switch.hole_check:                                ; preds = %5
  %switch.maskindex = zext nneg i8 %switch.tableidx to i16
  %switch.shifted = lshr i16 -6169, %switch.maskindex
  %switch.lobit = trunc i16 %switch.shifted to i1
  br i1 %switch.lobit, label %switch.lookup, label %11

switch.lookup:                                    ; preds = %switch.hole_check
  %14 = zext nneg i8 %switch.tableidx to i64
  %switch.gep = getelementptr inbounds nuw [16 x i64], ptr @switch.table.mbedtls_ssl_tls13_compute_application_transform.13, i64 0, i64 %14
  %switch.load = load i64, ptr %switch.gep, align 8
  br label %15

15:                                               ; preds = %switch.lookup, %11
  %16 = phi i64 [ %13, %11 ], [ %switch.load, %switch.lookup ]
  call void @llvm.lifetime.start.p0(i64 64, ptr nonnull %8) #8
  %17 = and i32 %0, 2130706432
  %18 = icmp eq i32 %17, 33554432
  br i1 %18, label %19, label %38

19:                                               ; preds = %15
  %20 = call i32 @mbedtls_ssl_tls13_hkdf_expand_label(i32 noundef %0, ptr noundef %1, i64 noundef %16, ptr noundef nonnull @mbedtls_ssl_tls13_labels, i64 noundef 8, ptr noundef null, i64 noundef 0, ptr noundef nonnull %8, i64 noundef %16)
  %.not = icmp eq i32 %20, 0
  br i1 %.not, label %22, label %.thread

.thread:                                          ; preds = %19
  %21 = call i32 @psa_destroy_key(i32 noundef 0) #8
  br label %37

22:                                               ; preds = %19
  %23 = or disjoint i32 %9, 58720256
  %24 = getelementptr inbounds nuw i8, ptr %7, i64 8
  store i32 1024, ptr %24, align 4, !tbaa !41
  %25 = getelementptr inbounds nuw i8, ptr %7, i64 12
  store i32 %23, ptr %25, align 4, !tbaa !44
  store i16 4352, ptr %7, align 4, !tbaa !45
  %26 = call i32 @psa_import_key(ptr noundef nonnull %7, ptr noundef nonnull %8, i64 noundef %16, ptr noundef nonnull %6) #8
  %.not38 = icmp eq i32 %26, 0
  br i1 %.not38, label %27, label %30

27:                                               ; preds = %22
  %28 = load i32, ptr %6, align 4, !tbaa !40
  %29 = call i32 @psa_mac_compute(i32 noundef %28, i32 noundef %23, ptr noundef %2, i64 noundef %16, ptr noundef %3, i64 noundef %16, ptr noundef %4) #8
  br label %30

30:                                               ; preds = %22, %27
  %.sink = phi i32 [ %29, %27 ], [ %26, %22 ]
  %31 = call i32 @psa_status_to_mbedtls(i32 noundef %.sink, ptr noundef nonnull @psa_to_ssl_errors, i64 noundef 7, ptr noundef nonnull @psa_generic_status_to_mbedtls) #8
  %32 = load i32, ptr %6, align 4, !tbaa !40
  %33 = call i32 @psa_destroy_key(i32 noundef %32) #8
  %34 = icmp eq i32 %31, 0
  br i1 %34, label %35, label %37

35:                                               ; preds = %30
  %36 = call i32 @psa_status_to_mbedtls(i32 noundef %33, ptr noundef nonnull @psa_to_ssl_errors, i64 noundef 7, ptr noundef nonnull @psa_generic_status_to_mbedtls) #8
  br label %37

37:                                               ; preds = %.thread, %35, %30
  %.1 = phi i32 [ %36, %35 ], [ %31, %30 ], [ %20, %.thread ]
  call void @mbedtls_platform_zeroize(ptr noundef nonnull %8, i64 noundef 64) #8
  br label %38

38:                                               ; preds = %15, %37
  %.0 = phi i32 [ %.1, %37 ], [ -27648, %15 ]
  call void @llvm.lifetime.end.p0(i64 64, ptr nonnull %8) #8
  call void @llvm.lifetime.end.p0(i64 24, ptr nonnull %7) #8
  call void @llvm.lifetime.end.p0(i64 4, ptr nonnull %6) #8
  ret i32 %.0
}